; Function Attrs: nounwind uwtable
define void @pmix_hwloc_destruct_cpuset(ptr noundef captures(address_is_null) %0) local_unnamed_addr #0 {
  %2 = icmp eq ptr %0, null
  br i1 %2, label %14, label %3

3:                                                ; preds = %1
  %4 = load ptr, ptr %0, align 8, !tbaa !21
  %5 = icmp eq ptr %4, null
  br i1 %5, label %14, label %6

6:                                                ; preds = %3
  %7 = tail call i32 @strncasecmp(ptr noundef nonnull %4, ptr noundef nonnull @.str, i64 noundef 5) #8
  %.not = icmp eq i32 %7, 0
  br i1 %.not, label %8, label %14

8:                                                ; preds = %6
  %9 = getelementptr inbounds nuw i8, ptr %0, i64 8
  %10 = load ptr, ptr %9, align 8, !tbaa !23
  %.not10 = icmp eq ptr %10, null
  br i1 %.not10, label %12, label %11

11:                                               ; preds = %8
  tail call void @hwloc_bitmap_free(ptr noundef nonnull %10) #7
  store ptr null, ptr %9, align 8, !tbaa !23
  %.pre = load ptr, ptr %0, align 8, !tbaa !21
  br label %12

12:                                               ; preds = %11, %8
  %13 = phi ptr [ %.pre, %11 ], [ %4, %8 ]
  tail call void @free(ptr noundef %13) #7
  store ptr null, ptr %0, align 8, !tbaa !21
  br label %14

14:                                               ; preds = %1, %3, %6, %12
  ret void
}